; Function Attrs: nounwind uwtable
define range(i32 -23, 1) i32 @ARKodeWFtolerances(ptr noundef captures(address_is_null) %0, ptr noundef %1) local_unnamed_addr #0 {
  %3 = icmp eq ptr %0, null
  br i1 %3, label %4, label %5

4:                                                ; preds = %2
  tail call void (ptr, i32, i32, ptr, ptr, ptr, ...) @arkProcessError(ptr noundef null, i32 noundef -21, i32 noundef 371, ptr noundef nonnull @__func__.ARKodeWFtolerances, ptr noundef nonnull @.str, ptr noundef nonnull @.str.1)
  br label %17

5:                                                ; preds = %2
  %6 = getelementptr inbounds nuw i8, ptr %0, i64 960
  %7 = load i32, ptr %6, align 8, !tbaa !3
  %8 = icmp eq i32 %7, 0
  br i1 %8, label %9, label %10

9:                                                ; preds = %5
  tail call void (ptr, i32, i32, ptr, ptr, ptr, ...) @arkProcessError(ptr noundef nonnull %0, i32 noundef -23, i32 noundef 379, ptr noundef nonnull @__func__.ARKodeWFtolerances, ptr noundef nonnull @.str, ptr noundef nonnull @.str.2)
  br label %17

10:                                               ; preds = %5
  %11 = getelementptr inbounds nuw i8, ptr %0, i64 24
  store i32 2, ptr %11, align 8, !tbaa !87
  %12 = getelementptr inbounds nuw i8, ptr %0, i64 84
  store i32 1, ptr %12, align 4, !tbaa !88
  %13 = getelementptr inbounds nuw i8, ptr %0, i64 88
  store ptr %1, ptr %13, align 8, !tbaa !89
  %14 = getelementptr inbounds nuw i8, ptr %0, i64 16
  %15 = load ptr, ptr %14, align 8, !tbaa !95
  %16 = getelementptr inbounds nuw i8, ptr %0, i64 96
  store ptr %15, ptr %16, align 8, !tbaa !90
  br label %17

17:                                               ; preds = %10, %9, %4
  %.0 = phi i32 [ -21, %4 ], [ -23, %9 ], [ 0, %10 ]
  ret i32 %.0
}